target datalayout = "e-m:e-p270:32:32-p271:32:32-p272:64:64-i64:64-i128:128-f80:128-n8:16:32:64-S128"
target triple = "x86_64-pc-linux-gnu"

%struct.pattern_entry = type { %struct.hashmap_entry, ptr, i64 }
%struct.hashmap_entry = type { ptr, i32 }

@ignore_case = external global i32, align 4

; Function Attrs: nounwind uwtable
define dso_local i32 @git_fspathncmp(ptr noundef %0, ptr noundef %1, i64 noundef %2) #0 {
  %4 = alloca ptr, align 8
  %5 = alloca ptr, align 8
  %6 = alloca i64, align 8
  store ptr %0, ptr %4, align 8, !tbaa !13
  store ptr %1, ptr %5, align 8, !tbaa !13
  store i64 %2, ptr %6, align 8, !tbaa !19
  %7 = load i32, ptr @ignore_case, align 4, !tbaa !16
  %8 = icmp ne i32 %7, 0
  br i1 %8, label %9, label %14

9:                                                ; preds = %3
  %10 = load ptr, ptr %4, align 8, !tbaa !13
  %11 = load ptr, ptr %5, align 8, !tbaa !13
  %12 = load i64, ptr %6, align 8, !tbaa !19
  %13 = call i32 @strncasecmp(ptr noundef %10, ptr noundef %11, i64 noundef %12) #13
  br label %19

14:                                               ; preds = %3
  %15 = load ptr, ptr %4, align 8, !tbaa !13
  %16 = load ptr, ptr %5, align 8, !tbaa !13
  %17 = load i64, ptr %6, align 8, !tbaa !19
  %18 = call i32 @strncmp(ptr noundef %15, ptr noundef %16, i64 noundef %17) #13
  br label %19

19:                                               ; preds = %14, %9
  %20 = phi i32 [ %13, %9 ], [ %18, %14 ]
  ret i32 %20
}

; Function Attrs: nounwind uwtable
define dso_local i32 @pl_hashmap_cmp(ptr noundef %0, ptr noundef %1, ptr noundef %2, ptr noundef %3) #0 {
  %5 = alloca ptr, align 8
  %6 = alloca ptr, align 8
  %7 = alloca ptr, align 8
  %8 = alloca ptr, align 8
  %9 = alloca ptr, align 8
  %10 = alloca ptr, align 8
  %11 = alloca i64, align 8
  store ptr %0, ptr %5, align 8, !tbaa !106
  store ptr %1, ptr %6, align 8, !tbaa !107
  store ptr %2, ptr %7, align 8, !tbaa !107
  store ptr %3, ptr %8, align 8, !tbaa !106
  call void @llvm.lifetime.start.p0(i64 8, ptr %9) #12
  %12 = load ptr, ptr %6, align 8, !tbaa !107
  %13 = getelementptr inbounds i8, ptr %12, i64 0
  store ptr %13, ptr %9, align 8, !tbaa !109
  call void @llvm.lifetime.start.p0(i64 8, ptr %10) #12
  %14 = load ptr, ptr %7, align 8, !tbaa !107
  %15 = getelementptr inbounds i8, ptr %14, i64 0
  store ptr %15, ptr %10, align 8, !tbaa !109
  call void @llvm.lifetime.start.p0(i64 8, ptr %11) #12
  %16 = load ptr, ptr %9, align 8, !tbaa !109
  %17 = getelementptr inbounds nuw %struct.pattern_entry, ptr %16, i32 0, i32 2
  %18 = load i64, ptr %17, align 8, !tbaa !111
  %19 = load ptr, ptr %10, align 8, !tbaa !109
  %20 = getelementptr inbounds nuw %struct.pattern_entry, ptr %19, i32 0, i32 2
  %21 = load i64, ptr %20, align 8, !tbaa !111
  %22 = icmp ule i64 %18, %21
  br i1 %22, label %23, label %27

23:                                               ; preds = %4
  %24 = load ptr, ptr %9, align 8, !tbaa !109
  %25 = getelementptr inbounds nuw %struct.pattern_entry, ptr %24, i32 0, i32 2
  %26 = load i64, ptr %25, align 8, !tbaa !111
  br label %31

27:                                               ; preds = %4
  %28 = load ptr, ptr %10, align 8, !tbaa !109
  %29 = getelementptr inbounds nuw %struct.pattern_entry, ptr %28, i32 0, i32 2
  %30 = load i64, ptr %29, align 8, !tbaa !111
  br label %31

31:                                               ; preds = %27, %23
  %32 = phi i64 [ %26, %23 ], [ %30, %27 ]
  store i64 %32, ptr %11, align 8, !tbaa !19
  %33 = load ptr, ptr %9, align 8, !tbaa !109
  %34 = getelementptr inbounds nuw %struct.pattern_entry, ptr %33, i32 0, i32 1
  %35 = load ptr, ptr %34, align 8, !tbaa !114
  %36 = load ptr, ptr %10, align 8, !tbaa !109
  %37 = getelementptr inbounds nuw %struct.pattern_entry, ptr %36, i32 0, i32 1
  %38 = load ptr, ptr %37, align 8, !tbaa !114
  %39 = load i64, ptr %11, align 8, !tbaa !19
  %40 = call i32 @git_fspathncmp(ptr noundef %35, ptr noundef %38, i64 noundef %39)
  call void @llvm.lifetime.end.p0(i64 8, ptr %11) #12
  call void @llvm.lifetime.end.p0(i64 8, ptr %10) #12
  call void @llvm.lifetime.end.p0(i64 8, ptr %9) #12
  ret i32 %40
}