; Function Attrs: mustprogress nofree nounwind willreturn memory(read) uwtable
define dso_local i32 @pl_hashmap_cmp(ptr readnone captures(none) %0, ptr noundef readonly captures(none) %1, ptr noundef readonly captures(none) %2, ptr readnone captures(none) %3) #4 {
  %5 = getelementptr inbounds nuw i8, ptr %1, i64 24
  %6 = load i64, ptr %5, align 8, !tbaa !104
  %7 = getelementptr inbounds nuw i8, ptr %2, i64 24
  %8 = load i64, ptr %7, align 8, !tbaa !104
  %. = tail call i64 @llvm.umin.i64(i64 %6, i64 %8)
  %9 = getelementptr inbounds nuw i8, ptr %1, i64 16
  %10 = load ptr, ptr %9, align 8, !tbaa !108
  %11 = getelementptr inbounds nuw i8, ptr %2, i64 16
  %12 = load ptr, ptr %11, align 8, !tbaa !108
  %13 = load i32, ptr @ignore_case, align 4, !tbaa !10
  %.not.i = icmp eq i32 %13, 0
  br i1 %.not.i, label %16, label %14

14:                                               ; preds = %4
  %15 = tail call i32 @strncasecmp(ptr noundef readonly %10, ptr noundef readonly %12, i64 noundef %.) #28
  br label %git_fspathncmp.exit

16:                                               ; preds = %4
  %17 = tail call i32 @strncmp(ptr noundef readonly %10, ptr noundef readonly %12, i64 noundef %.) #28
  br label %git_fspathncmp.exit

git_fspathncmp.exit:                              ; preds = %14, %16
  %18 = phi i32 [ %15, %14 ], [ %17, %16 ]
  ret i32 %18
}